target datalayout = "e-m:e-p270:32:32-p271:32:32-p272:64:64-i64:64-i128:128-f80:128-n8:16:32:64-S128"
target triple = "x86_64-pc-linux-gnu"

%struct.b2World = type { %struct.b2ArenaAllocator, %struct.b2BroadPhase, %struct.b2ConstraintGraph, %struct.b2IdPool, %struct.b2BodyArray, %struct.b2IdPool, %struct.b2SolverSetArray, %struct.b2IdPool, %struct.b2JointArray, %struct.b2IdPool, %struct.b2ContactArray, %struct.b2IdPool, %struct.b2IslandArray, %struct.b2IdPool, %struct.b2IdPool, %struct.b2ShapeArray, %struct.b2ChainShapeArray, %struct.b2SensorArray, %struct.b2TaskContextArray, %struct.b2SensorTaskContextArray, %struct.b2BodyMoveEventArray, %struct.b2SensorBeginTouchEventArray, %struct.b2ContactBeginTouchEventArray, [2 x %struct.b2SensorEndTouchEventArray], [2 x %struct.b2ContactEndTouchEventArray], i32, %struct.b2ContactHitEventArray, %struct.b2BitSet, %struct.b2BitSet, %struct.b2BitSet, i64, i32, %struct.b2Vec2, float, float, float, float, float, float, float, float, ptr, ptr, i16, %struct.b2Profile, ptr, ptr, ptr, ptr, i32, ptr, ptr, ptr, ptr, ptr, float, i32, i32, i16, i8, i8, i8, i8, i8, i8 }
%struct.b2ArenaAllocator = type { ptr, i32, i32, i32, i32, %struct.b2ArenaEntryArray }
%struct.b2ArenaEntryArray = type { ptr, i32, i32 }
%struct.b2BroadPhase = type { [3 x %struct.b2DynamicTree], i32, %struct.b2HashSet, %struct.b2IntArray, ptr, ptr, i32, %struct.b2AtomicInt, %struct.b2HashSet }
%struct.b2DynamicTree = type { ptr, i32, i32, i32, i32, i32, ptr, ptr, ptr, ptr, i32 }
%struct.b2IntArray = type { ptr, i32, i32 }
%struct.b2AtomicInt = type { i32 }
%struct.b2HashSet = type { ptr, i32, i32 }
%struct.b2ConstraintGraph = type { [12 x %struct.b2GraphColor] }
%struct.b2GraphColor = type { %struct.b2BitSet, %struct.b2ContactSimArray, %struct.b2JointSimArray, %union.anon }
%struct.b2ContactSimArray = type { ptr, i32, i32 }
%struct.b2JointSimArray = type { ptr, i32, i32 }
%union.anon = type { ptr }
%struct.b2BodyArray = type { ptr, i32, i32 }
%struct.b2SolverSetArray = type { ptr, i32, i32 }
%struct.b2JointArray = type { ptr, i32, i32 }
%struct.b2ContactArray = type { ptr, i32, i32 }
%struct.b2IslandArray = type { ptr, i32, i32 }
%struct.b2IdPool = type { %struct.b2IntArray, i32 }
%struct.b2ShapeArray = type { ptr, i32, i32 }
%struct.b2ChainShapeArray = type { ptr, i32, i32 }
%struct.b2SensorArray = type { ptr, i32, i32 }
%struct.b2TaskContextArray = type { ptr, i32, i32 }
%struct.b2SensorTaskContextArray = type { ptr, i32, i32 }
%struct.b2BodyMoveEventArray = type { ptr, i32, i32 }
%struct.b2SensorBeginTouchEventArray = type { ptr, i32, i32 }
%struct.b2ContactBeginTouchEventArray = type { ptr, i32, i32 }
%struct.b2SensorEndTouchEventArray = type { ptr, i32, i32 }
%struct.b2ContactEndTouchEventArray = type { ptr, i32, i32 }
%struct.b2ContactHitEventArray = type { ptr, i32, i32 }
%struct.b2BitSet = type { ptr, i32, i32 }
%struct.b2Vec2 = type { float, float }
%struct.b2Profile = type { float, float, float, float, float, float, float, float, float, float, float, float, float, float, float, float, float, float, float, float, float, float }
%struct.b2Transform = type { %struct.b2Vec2, %struct.b2Rot }
%struct.b2Rot = type { float, float }
%struct.b2ShapeId = type { i32, i16, i16 }
%struct.b2SimplexCache = type { i16, [3 x i8], [3 x i8] }
%struct.b2Shape = type { i32, i32, i32, i32, i32, i32, float, float, float, float, float, i32, %struct.b2AABB, %struct.b2AABB, %struct.b2Vec2, i32, %struct.b2Filter, ptr, i32, %union.anon.0, i16, i8, i8, i8, i8 }
%struct.b2AABB = type { %struct.b2Vec2, %struct.b2Vec2 }
%struct.b2Filter = type { i64, i64, i32 }
%union.anon.0 = type { %struct.b2Polygon }
%struct.b2Polygon = type { [8 x %struct.b2Vec2], [8 x %struct.b2Vec2], %struct.b2Vec2, float, i32 }
%struct.b2Body = type { [32 x i8], ptr, i32, i32, i32, i32, i32, i32, i32, i32, i32, i32, i32, i32, float, float, float, float, i32, i32, i32, i16, i8, i8, i8, i8 }
%struct.b2QueryFilter = type { i64, i64 }
%struct.WorldOverlapContext = type { ptr, ptr, %struct.b2QueryFilter, %struct.b2ShapeProxy, %struct.b2Transform, ptr }
%struct.b2ShapeProxy = type { [8 x %struct.b2Vec2], i32, float }
%struct.b2DistanceInput = type { %struct.b2ShapeProxy, %struct.b2ShapeProxy, %struct.b2Transform, %struct.b2Transform, i8 }
%struct.b2DistanceOutput = type { %struct.b2Vec2, %struct.b2Vec2, float, i32, i32 }

; Function Attrs: inlinehint nounwind uwtable
define internal ptr @b2BodyArray_Get(ptr noundef %0, i32 noundef %1) #5 {
  %3 = alloca ptr, align 8
  %4 = alloca i32, align 4
  store ptr %0, ptr %3, align 8, !tbaa !12
  store i32 %1, ptr %4, align 4, !tbaa !3
  %5 = load ptr, ptr %3, align 8, !tbaa !12
  %6 = getelementptr inbounds nuw %struct.b2BodyArray, ptr %5, i32 0, i32 0
  %7 = load ptr, ptr %6, align 8, !tbaa !394
  %8 = load i32, ptr %4, align 4, !tbaa !3
  %9 = sext i32 %8 to i64
  %10 = getelementptr inbounds %struct.b2Body, ptr %7, i64 %9
  ret ptr %10
}

; Function Attrs: inlinehint nounwind uwtable
define internal ptr @b2ShapeArray_Get(ptr noundef %0, i32 noundef %1) #5 {
  %3 = alloca ptr, align 8
  %4 = alloca i32, align 4
  store ptr %0, ptr %3, align 8, !tbaa !12
  store i32 %1, ptr %4, align 4, !tbaa !3
  %5 = load ptr, ptr %3, align 8, !tbaa !12
  %6 = getelementptr inbounds nuw %struct.b2ShapeArray, ptr %5, i32 0, i32 0
  %7 = load ptr, ptr %6, align 8, !tbaa !612
  %8 = load i32, ptr %4, align 4, !tbaa !3
  %9 = sext i32 %8 to i64
  %10 = getelementptr inbounds %struct.b2Shape, ptr %7, i64 %9
  ret ptr %10
}

; Function Attrs: nounwind uwtable
define internal zeroext i1 @TreeOverlapCallback(i32 noundef %0, i32 noundef %1, ptr noundef %2) #6 {
  %4 = alloca i1, align 1
  %5 = alloca i32, align 4
  %6 = alloca i32, align 4
  %7 = alloca ptr, align 8
  %8 = alloca ptr, align 8
  %9 = alloca ptr, align 8
  %10 = alloca ptr, align 8
  %11 = alloca %struct.b2Filter, align 8
  %12 = alloca %struct.b2QueryFilter, align 8
  %13 = alloca i32, align 4
  %14 = alloca ptr, align 8
  %15 = alloca %struct.b2Transform, align 4
  %16 = alloca %struct.b2DistanceInput, align 4
  %17 = alloca %struct.b2ShapeProxy, align 4
  %18 = alloca %struct.b2SimplexCache, align 2
  %19 = alloca %struct.b2DistanceOutput, align 4
  %20 = alloca %struct.b2ShapeId, align 4
  %21 = alloca i8, align 1
  store i32 %0, ptr %5, align 4, !tbaa !3
  store i32 %1, ptr %6, align 4, !tbaa !3
  store ptr %2, ptr %7, align 8, !tbaa !12
  call void @llvm.lifetime.start.p0(i64 8, ptr %8) #10
  %22 = load ptr, ptr %7, align 8, !tbaa !12
  store ptr %22, ptr %8, align 8, !tbaa !525
  call void @llvm.lifetime.start.p0(i64 8, ptr %9) #10
  %23 = load ptr, ptr %8, align 8, !tbaa !525
  %24 = getelementptr inbounds nuw %struct.WorldOverlapContext, ptr %23, i32 0, i32 0
  %25 = load ptr, ptr %24, align 8, !tbaa !519
  store ptr %25, ptr %9, align 8, !tbaa !47
  call void @llvm.lifetime.start.p0(i64 8, ptr %10) #10
  %26 = load ptr, ptr %9, align 8, !tbaa !47
  %27 = getelementptr inbounds nuw %struct.b2World, ptr %26, i32 0, i32 15
  %28 = load i32, ptr %6, align 4, !tbaa !3
  %29 = call ptr @b2ShapeArray_Get(ptr noundef %27, i32 noundef %28)
  store ptr %29, ptr %10, align 8, !tbaa !113
  call void @llvm.lifetime.start.p0(i64 24, ptr %11) #10
  %30 = load ptr, ptr %10, align 8, !tbaa !113
  %31 = getelementptr inbounds nuw %struct.b2Shape, ptr %30, i32 0, i32 16
  call void @llvm.memcpy.p0.p0.i64(ptr align 8 %11, ptr align 8 %31, i64 24, i1 false), !tbaa.struct !515
  call void @llvm.lifetime.start.p0(i64 16, ptr %12) #10
  %32 = load ptr, ptr %8, align 8, !tbaa !525
  %33 = getelementptr inbounds nuw %struct.WorldOverlapContext, ptr %32, i32 0, i32 2
  call void @llvm.memcpy.p0.p0.i64(ptr align 8 %12, ptr align 8 %33, i64 16, i1 false), !tbaa.struct !506
  %34 = getelementptr inbounds nuw %struct.b2Filter, ptr %11, i32 0, i32 0
  %35 = load i64, ptr %34, align 8, !tbaa !516
  %36 = getelementptr inbounds nuw %struct.b2QueryFilter, ptr %12, i32 0, i32 1
  %37 = load i64, ptr %36, align 8, !tbaa !508
  %38 = and i64 %35, %37
  %39 = icmp eq i64 %38, 0
  br i1 %39, label %47, label %40

40:                                               ; preds = %3
  %41 = getelementptr inbounds nuw %struct.b2Filter, ptr %11, i32 0, i32 1
  %42 = load i64, ptr %41, align 8, !tbaa !517
  %43 = getelementptr inbounds nuw %struct.b2QueryFilter, ptr %12, i32 0, i32 0
  %44 = load i64, ptr %43, align 8, !tbaa !518
  %45 = and i64 %42, %44
  %46 = icmp eq i64 %45, 0
  br i1 %46, label %47, label %48

47:                                               ; preds = %40, %3
  store i1 true, ptr %4, align 1
  store i32 1, ptr %13, align 4
  br label %102

48:                                               ; preds = %40
  call void @llvm.lifetime.start.p0(i64 8, ptr %14) #10
  %49 = load ptr, ptr %9, align 8, !tbaa !47
  %50 = getelementptr inbounds nuw %struct.b2World, ptr %49, i32 0, i32 4
  %51 = load ptr, ptr %10, align 8, !tbaa !113
  %52 = getelementptr inbounds nuw %struct.b2Shape, ptr %51, i32 0, i32 1
  %53 = load i32, ptr %52, align 4, !tbaa !527
  %54 = call ptr @b2BodyArray_Get(ptr noundef %50, i32 noundef %53)
  store ptr %54, ptr %14, align 8, !tbaa !108
  call void @llvm.lifetime.start.p0(i64 16, ptr %15) #10
  %55 = load ptr, ptr %9, align 8, !tbaa !47
  %56 = load ptr, ptr %14, align 8, !tbaa !108
  %57 = call { <2 x float>, <2 x float> } @b2GetBodyTransformQuick(ptr noundef %55, ptr noundef %56)
  %58 = getelementptr inbounds nuw { <2 x float>, <2 x float> }, ptr %15, i32 0, i32 0
  %59 = extractvalue { <2 x float>, <2 x float> } %57, 0
  store <2 x float> %59, ptr %58, align 4
  %60 = getelementptr inbounds nuw { <2 x float>, <2 x float> }, ptr %15, i32 0, i32 1
  %61 = extractvalue { <2 x float>, <2 x float> } %57, 1
  store <2 x float> %61, ptr %60, align 4
  call void @llvm.lifetime.start.p0(i64 180, ptr %16) #10
  %62 = getelementptr inbounds nuw %struct.b2DistanceInput, ptr %16, i32 0, i32 0
  %63 = load ptr, ptr %8, align 8, !tbaa !525
  %64 = getelementptr inbounds nuw %struct.WorldOverlapContext, ptr %63, i32 0, i32 3
  call void @llvm.memcpy.p0.p0.i64(ptr align 4 %62, ptr align 8 %64, i64 72, i1 false), !tbaa.struct !528
  %65 = getelementptr inbounds nuw %struct.b2DistanceInput, ptr %16, i32 0, i32 1
  call void @llvm.lifetime.start.p0(i64 72, ptr %17) #10
  %66 = load ptr, ptr %10, align 8, !tbaa !113
  call void @b2MakeShapeDistanceProxy(ptr dead_on_unwind writable sret(%struct.b2ShapeProxy) align 4 %17, ptr noundef %66)
  call void @llvm.memcpy.p0.p0.i64(ptr align 4 %65, ptr align 4 %17, i64 72, i1 false), !tbaa.struct !528
  call void @llvm.lifetime.end.p0(i64 72, ptr %17) #10
  %67 = getelementptr inbounds nuw %struct.b2DistanceInput, ptr %16, i32 0, i32 2
  %68 = load ptr, ptr %8, align 8, !tbaa !525
  %69 = getelementptr inbounds nuw %struct.WorldOverlapContext, ptr %68, i32 0, i32 4
  call void @llvm.memcpy.p0.p0.i64(ptr align 4 %67, ptr align 8 %69, i64 16, i1 false), !tbaa.struct !316
  %70 = getelementptr inbounds nuw %struct.b2DistanceInput, ptr %16, i32 0, i32 3
  call void @llvm.memcpy.p0.p0.i64(ptr align 4 %70, ptr align 4 %15, i64 16, i1 false), !tbaa.struct !316
  %71 = getelementptr inbounds nuw %struct.b2DistanceInput, ptr %16, i32 0, i32 4
  store i8 1, ptr %71, align 4, !tbaa !529
  call void @llvm.lifetime.start.p0(i64 8, ptr %18) #10
  call void @llvm.memset.p0.i64(ptr align 2 %18, i8 0, i64 8, i1 false)
  call void @llvm.lifetime.start.p0(i64 28, ptr %19) #10
  call void @b2ShapeDistance(ptr dead_on_unwind writable sret(%struct.b2DistanceOutput) align 4 %19, ptr noundef %18, ptr noundef %16, ptr noundef null, i32 noundef 0)
  %72 = getelementptr inbounds nuw %struct.b2DistanceOutput, ptr %19, i32 0, i32 2
  %73 = load float, ptr %72, align 4, !tbaa !531
  %74 = fcmp ogt float %73, 0.000000e+00
  br i1 %74, label %75, label %76

75:                                               ; preds = %48
  store i1 true, ptr %4, align 1
  store i32 1, ptr %13, align 4
  br label %101

76:                                               ; preds = %48
  call void @llvm.lifetime.start.p0(i64 8, ptr %20) #10
  %77 = getelementptr inbounds nuw %struct.b2ShapeId, ptr %20, i32 0, i32 0
  %78 = load ptr, ptr %10, align 8, !tbaa !113
  %79 = getelementptr inbounds nuw %struct.b2Shape, ptr %78, i32 0, i32 0
  %80 = load i32, ptr %79, align 8, !tbaa !285
  %81 = add nsw i32 %80, 1
  store i32 %81, ptr %77, align 4, !tbaa !289
  %82 = getelementptr inbounds nuw %struct.b2ShapeId, ptr %20, i32 0, i32 1
  %83 = load ptr, ptr %9, align 8, !tbaa !47
  %84 = getelementptr inbounds nuw %struct.b2World, ptr %83, i32 0, i32 58
  %85 = load i16, ptr %84, align 4, !tbaa !126
  store i16 %85, ptr %82, align 4, !tbaa !291
  %86 = getelementptr inbounds nuw %struct.b2ShapeId, ptr %20, i32 0, i32 2
  %87 = load ptr, ptr %10, align 8, !tbaa !113
  %88 = getelementptr inbounds nuw %struct.b2Shape, ptr %87, i32 0, i32 20
  %89 = load i16, ptr %88, align 4, !tbaa !292
  store i16 %89, ptr %86, align 2, !tbaa !293
  call void @llvm.lifetime.start.p0(i64 1, ptr %21) #10
  %90 = load ptr, ptr %8, align 8, !tbaa !525
  %91 = getelementptr inbounds nuw %struct.WorldOverlapContext, ptr %90, i32 0, i32 1
  %92 = load ptr, ptr %91, align 8, !tbaa !522
  %93 = load ptr, ptr %8, align 8, !tbaa !525
  %94 = getelementptr inbounds nuw %struct.WorldOverlapContext, ptr %93, i32 0, i32 5
  %95 = load ptr, ptr %94, align 8, !tbaa !523
  %96 = load i64, ptr %20, align 4
  %97 = call zeroext i1 %92(i64 %96, ptr noundef %95)
  %98 = zext i1 %97 to i8
  store i8 %98, ptr %21, align 1, !tbaa !125
  %99 = load i8, ptr %21, align 1, !tbaa !125, !range !90, !noundef !91
  %100 = trunc i8 %99 to i1
  store i1 %100, ptr %4, align 1
  store i32 1, ptr %13, align 4
  call void @llvm.lifetime.end.p0(i64 1, ptr %21) #10
  call void @llvm.lifetime.end.p0(i64 8, ptr %20) #10
  br label %101

101:                                              ; preds = %76, %75
  call void @llvm.lifetime.end.p0(i64 28, ptr %19) #10
  call void @llvm.lifetime.end.p0(i64 8, ptr %18) #10
  call void @llvm.lifetime.end.p0(i64 180, ptr %16) #10
  call void @llvm.lifetime.end.p0(i64 16, ptr %15) #10
  call void @llvm.lifetime.end.p0(i64 8, ptr %14) #10
  br label %102

102:                                              ; preds = %101, %47
  call void @llvm.lifetime.end.p0(i64 16, ptr %12) #10
  call void @llvm.lifetime.end.p0(i64 24, ptr %11) #10
  call void @llvm.lifetime.end.p0(i64 8, ptr %10) #10
  call void @llvm.lifetime.end.p0(i64 8, ptr %9) #10
  call void @llvm.lifetime.end.p0(i64 8, ptr %8) #10
  %103 = load i1, ptr %4, align 1
  ret i1 %103
}