; Function Attrs: nounwind uwtable
define internal zeroext i1 @TreeOverlapCallback(i32 %0, i32 noundef %1, ptr noundef readonly captures(none) %2) #8 {
  %4 = alloca %struct.b2DistanceInput, align 4
  %5 = alloca %struct.b2SimplexCache, align 8
  %6 = alloca %struct.b2DistanceOutput, align 4
  %7 = load ptr, ptr %2, align 8, !tbaa !419
  %8 = getelementptr inbounds nuw i8, ptr %7, i64 1256
  %.val26 = load ptr, ptr %8, align 8, !tbaa !418
  %9 = sext i32 %1 to i64
  %10 = getelementptr inbounds %struct.b2Shape, ptr %.val26, i64 %9
  %11 = getelementptr inbounds nuw i8, ptr %10, i64 96
  %.sroa.05.0.copyload = load i64, ptr %11, align 8, !tbaa !227
  %.sroa.44.0..sroa_idx = getelementptr inbounds nuw i8, ptr %2, i64 24
  %.sroa.44.0.copyload = load i64, ptr %.sroa.44.0..sroa_idx, align 8, !tbaa !227
  %12 = and i64 %.sroa.44.0.copyload, %.sroa.05.0.copyload
  %13 = icmp eq i64 %12, 0
  br i1 %13, label %49, label %14

14:                                               ; preds = %3
  %15 = getelementptr inbounds nuw i8, ptr %2, i64 16
  %.sroa.03.0.copyload = load i64, ptr %15, align 8, !tbaa !227
  %.sroa.46.0..sroa_idx = getelementptr inbounds nuw i8, ptr %10, i64 104
  %.sroa.46.0.copyload = load i64, ptr %.sroa.46.0..sroa_idx, align 8, !tbaa !227
  %16 = and i64 %.sroa.46.0.copyload, %.sroa.03.0.copyload
  %17 = icmp eq i64 %16, 0
  br i1 %17, label %49, label %18

18:                                               ; preds = %14
  %19 = getelementptr inbounds nuw i8, ptr %7, i64 1032
  %20 = getelementptr inbounds nuw i8, ptr %10, i64 4
  %21 = load i32, ptr %20, align 4, !tbaa !425
  %.val = load ptr, ptr %19, align 8, !tbaa !269
  %22 = sext i32 %21 to i64
  %23 = getelementptr inbounds %struct.b2Body, ptr %.val, i64 %22
  %24 = tail call { <2 x float>, <2 x float> } @b2GetBodyTransformQuick(ptr noundef nonnull %7, ptr noundef %23) #22
  %25 = extractvalue { <2 x float>, <2 x float> } %24, 0
  %26 = extractvalue { <2 x float>, <2 x float> } %24, 1
  call void @llvm.lifetime.start.p0(i64 180, ptr nonnull %4) #22
  %27 = getelementptr inbounds nuw i8, ptr %2, i64 32
  call void @llvm.memcpy.p0.p0.i64(ptr noundef nonnull align 4 dereferenceable(72) %4, ptr noundef nonnull align 8 dereferenceable(72) %27, i64 72, i1 false), !tbaa.struct !426
  %28 = getelementptr inbounds nuw i8, ptr %4, i64 72
  call void @b2MakeShapeDistanceProxy(ptr dead_on_unwind nonnull writable sret(%struct.b2ShapeProxy) align 4 %28, ptr noundef nonnull %10) #22
  %29 = getelementptr inbounds nuw i8, ptr %4, i64 144
  %30 = getelementptr inbounds nuw i8, ptr %2, i64 104
  call void @llvm.memcpy.p0.p0.i64(ptr noundef nonnull align 4 dereferenceable(16) %29, ptr noundef nonnull align 8 dereferenceable(16) %30, i64 16, i1 false), !tbaa.struct !427
  %31 = getelementptr inbounds nuw i8, ptr %4, i64 160
  store <2 x float> %25, ptr %31, align 4
  %.sroa.42.0..sroa_idx = getelementptr inbounds nuw i8, ptr %4, i64 168
  store <2 x float> %26, ptr %.sroa.42.0..sroa_idx, align 4
  %32 = getelementptr inbounds nuw i8, ptr %4, i64 176
  store i8 1, ptr %32, align 4, !tbaa !428
  call void @llvm.lifetime.start.p0(i64 8, ptr nonnull %5) #22
  store i64 0, ptr %5, align 8
  call void @llvm.lifetime.start.p0(i64 28, ptr nonnull %6) #22
  call void @b2ShapeDistance(ptr dead_on_unwind nonnull writable sret(%struct.b2DistanceOutput) align 4 %6, ptr noundef nonnull %5, ptr noundef nonnull %4, ptr noundef null, i32 noundef 0) #22
  %33 = getelementptr inbounds nuw i8, ptr %6, i64 16
  %34 = load float, ptr %33, align 4, !tbaa !430
  %35 = fcmp ogt float %34, 0.000000e+00
  br i1 %35, label %48, label %36

36:                                               ; preds = %18
  %37 = load i32, ptr %10, align 8, !tbaa !235
  %38 = add nsw i32 %37, 1
  %39 = getelementptr inbounds nuw i8, ptr %7, i64 1780
  %40 = load i16, ptr %39, align 4, !tbaa !83
  %41 = getelementptr inbounds nuw i8, ptr %10, i64 276
  %42 = load i16, ptr %41, align 4, !tbaa !239
  %43 = getelementptr inbounds nuw i8, ptr %2, i64 8
  %44 = load ptr, ptr %43, align 8, !tbaa !422
  %45 = getelementptr inbounds nuw i8, ptr %2, i64 120
  %46 = load ptr, ptr %45, align 8, !tbaa !423
  %.sroa.5.0.insert.ext = zext i16 %42 to i64
  %.sroa.5.0.insert.shift = shl nuw i64 %.sroa.5.0.insert.ext, 48
  %.sroa.4.0.insert.ext = zext i16 %40 to i64
  %.sroa.4.0.insert.shift = shl nuw nsw i64 %.sroa.4.0.insert.ext, 32
  %.sroa.0.0.insert.ext = zext i32 %38 to i64
  %.sroa.4.0.insert.insert = or disjoint i64 %.sroa.4.0.insert.shift, %.sroa.0.0.insert.ext
  %.sroa.0.0.insert.insert = or disjoint i64 %.sroa.4.0.insert.insert, %.sroa.5.0.insert.shift
  %47 = call zeroext i1 %44(i64 %.sroa.0.0.insert.insert, ptr noundef %46) #22
  br label %48

48:                                               ; preds = %18, %36
  %.1 = phi i1 [ %47, %36 ], [ true, %18 ]
  call void @llvm.lifetime.end.p0(i64 28, ptr nonnull %6) #22
  call void @llvm.lifetime.end.p0(i64 8, ptr nonnull %5) #22
  call void @llvm.lifetime.end.p0(i64 180, ptr nonnull %4) #22
  br label %49

49:                                               ; preds = %3, %14, %48
  %.0 = phi i1 [ %.1, %48 ], [ true, %14 ], [ true, %3 ]
  ret i1 %.0
}